; Function Attrs: nounwind sspstrong uwtable
define dso_local void @qemu_boot_set(ptr noundef %boot_order, ptr noundef %errp) local_unnamed_addr #1 {
entry:
  %local_err = alloca ptr, align 8
  store ptr null, ptr %local_err, align 8
  %0 = load ptr, ptr @boot_set_handler, align 8
  %tobool.not = icmp eq ptr %0, null
  br i1 %tobool.not, label %if.then, label %if.end

if.then:                                          ; preds = %entry
  tail call void (ptr, ptr, i32, ptr, ptr, ...) @error_setg_internal(ptr noundef %errp, ptr noundef nonnull @.str, i32 noundef 60, ptr noundef nonnull @__func__.qemu_boot_set, ptr noundef nonnull @.str.1) #11
  br label %return

if.end:                                           ; preds = %entry
  %1 = load i8, ptr %boot_order, align 1
  %cmp.not13.i = icmp eq i8 %1, 0
  br i1 %cmp.not13.i, label %validate_bootdevices.exit, label %for.body.i

for.body.i:                                       ; preds = %if.end, %if.end12.i
  %2 = phi i8 [ %4, %if.end12.i ], [ %1, %if.end ]
  %bitmap.015.i = phi i32 [ %or.i, %if.end12.i ], [ 0, %if.end ]
  %p.014.i = phi ptr [ %incdec.ptr.i, %if.end12.i ], [ %boot_order, %if.end ]
  %conv16.i = sext i8 %2 to i32
  %3 = add i8 %2, -113
  %or.cond.i = icmp ult i8 %3, -16
  br i1 %or.cond.i, label %if.then.i, label %if.end.i

if.then.i:                                        ; preds = %for.body.i
  call void (ptr, ptr, i32, ptr, ptr, ...) @error_setg_internal(ptr noundef nonnull %local_err, ptr noundef nonnull @.str, i32 noundef 90, ptr noundef nonnull @__func__.validate_bootdevices, ptr noundef nonnull @.str.2, i32 noundef %conv16.i) #11
  br label %validate_bootdevices.exit

if.end.i:                                         ; preds = %for.body.i
  %sub.i = add nsw i32 %conv16.i, -97
  %shl.i = shl nuw nsw i32 1, %sub.i
  %and.i = and i32 %shl.i, %bitmap.015.i
  %tobool.not.i = icmp eq i32 %and.i, 0
  br i1 %tobool.not.i, label %if.end12.i, label %if.then10.i

if.then10.i:                                      ; preds = %if.end.i
  call void (ptr, ptr, i32, ptr, ptr, ...) @error_setg_internal(ptr noundef nonnull %local_err, ptr noundef nonnull @.str, i32 noundef 94, ptr noundef nonnull @__func__.validate_bootdevices, ptr noundef nonnull @.str.3, i32 noundef %conv16.i) #11
  br label %validate_bootdevices.exit

if.end12.i:                                       ; preds = %if.end.i
  %or.i = or i32 %shl.i, %bitmap.015.i
  %incdec.ptr.i = getelementptr i8, ptr %p.014.i, i64 1
  %4 = load i8, ptr %incdec.ptr.i, align 1
  %cmp.not.i = icmp eq i8 %4, 0
  br i1 %cmp.not.i, label %validate_bootdevices.exit, label %for.body.i, !llvm.loop !5

validate_bootdevices.exit:                        ; preds = %if.end12.i, %if.end, %if.then.i, %if.then10.i
  %5 = load ptr, ptr %local_err, align 8
  %tobool1.not = icmp eq ptr %5, null
  br i1 %tobool1.not, label %if.end3, label %if.then2

if.then2:                                         ; preds = %validate_bootdevices.exit
  call void @error_propagate(ptr noundef %errp, ptr noundef nonnull %5) #11
  br label %return

if.end3:                                          ; preds = %validate_bootdevices.exit
  %6 = load ptr, ptr @boot_set_handler, align 8
  %7 = load ptr, ptr @boot_set_opaque, align 8
  call void %6(ptr noundef %7, ptr noundef nonnull %boot_order, ptr noundef %errp) #11
  br label %return

return:                                           ; preds = %if.end3, %if.then2, %if.then
  ret void
}